target datalayout = "e-m:e-p270:32:32-p271:32:32-p272:64:64-i64:64-i128:128-f80:128-n8:16:32:64-S128"
target triple = "x86_64-unknown-linux-gnu"

%"struct.facebook::velox::StlAllocator" = type { ptr }
%"struct.facebook::velox::StlAllocator.2" = type { ptr }
%"class.facebook::velox::common::hll::DenseHll" = type { i8, i8, i32, %"class.std::vector", i16, %"class.std::vector.0", %"class.std::vector" }
%"class.std::vector.0" = type { %"struct.std::_Vector_base.1" }
%"struct.std::_Vector_base.1" = type { %"struct.std::_Vector_base<unsigned short, facebook::velox::StlAllocator<unsigned short>>::_Vector_impl" }
%"struct.std::_Vector_base<unsigned short, facebook::velox::StlAllocator<unsigned short>>::_Vector_impl" = type { %"struct.facebook::velox::StlAllocator.2", %"struct.std::_Vector_base<unsigned short, facebook::velox::StlAllocator<unsigned short>>::_Vector_impl_data" }
%"struct.std::_Vector_base<unsigned short, facebook::velox::StlAllocator<unsigned short>>::_Vector_impl_data" = type { ptr, ptr, ptr }
%"class.std::vector" = type { %"struct.std::_Vector_base" }
%"struct.std::_Vector_base" = type { %"struct.std::_Vector_base<signed char, facebook::velox::StlAllocator<signed char>>::_Vector_impl" }
%"struct.std::_Vector_base<signed char, facebook::velox::StlAllocator<signed char>>::_Vector_impl" = type { %"struct.facebook::velox::StlAllocator", %"struct.std::_Vector_base<signed char, facebook::velox::StlAllocator<signed char>>::_Vector_impl_data" }
%"struct.std::_Vector_base<signed char, facebook::velox::StlAllocator<signed char>>::_Vector_impl_data" = type { ptr, ptr, ptr }

; Function Attrs: noreturn nounwind uwtable
define linkonce_odr hidden void @__clang_call_terminate(ptr noundef %0) #6 comdat {
  %2 = call ptr @__cxa_begin_catch(ptr %0) #9
  call void @_ZSt9terminatev() #10
  unreachable
}

; Function Attrs: mustprogress nounwind uwtable
define linkonce_odr void @_ZSt8_DestroyIaEvPT_(ptr noundef %__pointer) #1 comdat {
entry:
  %__pointer.addr = alloca ptr, align 8
  store ptr %__pointer, ptr %__pointer.addr, align 8
  ret void
}

; Function Attrs: mustprogress nounwind uwtable
define linkonce_odr void @_ZNSt16allocator_traitsIN8facebook5velox12StlAllocatorIaEEE10_S_destroyIS3_aEEvRT_PT0_z(ptr noundef nonnull align 8 dereferenceable(8) %0, ptr noundef %__p, ...) #1 comdat align 2 personality ptr @__gxx_personality_v0 {
entry:
  %.addr = alloca ptr, align 8
  %__p.addr = alloca ptr, align 8
  store ptr %0, ptr %.addr, align 8
  store ptr %__p, ptr %__p.addr, align 8
  %1 = load ptr, ptr %__p.addr, align 8
  invoke void @_ZSt8_DestroyIaEvPT_(ptr noundef %1)
          to label %invoke.cont unwind label %terminate.lpad

invoke.cont:                                      ; preds = %entry
  ret void

terminate.lpad:                                   ; preds = %entry
  %2 = landingpad { ptr, i32 }
          catch ptr null
  %3 = extractvalue { ptr, i32 } %2, 0
  call void @__clang_call_terminate(ptr %3) #10
  unreachable
}

; Function Attrs: mustprogress nounwind uwtable
define linkonce_odr void @_ZNSt16allocator_traitsIN8facebook5velox12StlAllocatorIaEEE7destroyIaEEvRS3_PT_(ptr noundef nonnull align 8 dereferenceable(8) %__a, ptr noundef %__p) #1 comdat align 2 {
entry:
  %__a.addr = alloca ptr, align 8
  %__p.addr = alloca ptr, align 8
  store ptr %__a, ptr %__a.addr, align 8
  store ptr %__p, ptr %__p.addr, align 8
  %0 = load ptr, ptr %__a.addr, align 8
  %1 = load ptr, ptr %__p.addr, align 8
  call void (ptr, ptr, ...) @_ZNSt16allocator_traitsIN8facebook5velox12StlAllocatorIaEEE10_S_destroyIS3_aEEvRT_PT0_z(ptr noundef nonnull align 8 dereferenceable(8) %0, ptr noundef %1, i32 noundef 0) #9
  ret void
}

; Function Attrs: mustprogress nounwind uwtable
define linkonce_odr void @_ZSt8_DestroyIPaN8facebook5velox12StlAllocatorIaEEEvT_S5_RT0_(ptr noundef %__first, ptr noundef %__last, ptr noundef nonnull align 8 dereferenceable(8) %__alloc) #1 comdat {
entry:
  %__first.addr = alloca ptr, align 8
  %__last.addr = alloca ptr, align 8
  %__alloc.addr = alloca ptr, align 8
  store ptr %__first, ptr %__first.addr, align 8
  store ptr %__last, ptr %__last.addr, align 8
  store ptr %__alloc, ptr %__alloc.addr, align 8
  br label %for.cond

for.cond:                                         ; preds = %for.inc, %entry
  %0 = load ptr, ptr %__first.addr, align 8
  %1 = load ptr, ptr %__last.addr, align 8
  %cmp = icmp ne ptr %0, %1
  br i1 %cmp, label %for.body, label %for.end

for.body:                                         ; preds = %for.cond
  %2 = load ptr, ptr %__alloc.addr, align 8
  %3 = load ptr, ptr %__first.addr, align 8
  call void @_ZNSt16allocator_traitsIN8facebook5velox12StlAllocatorIaEEE7destroyIaEEvRS3_PT_(ptr noundef nonnull align 8 dereferenceable(8) %2, ptr noundef %3) #9
  br label %for.inc

for.inc:                                          ; preds = %for.body
  %4 = load ptr, ptr %__first.addr, align 8
  %incdec.ptr = getelementptr inbounds i8, ptr %4, i32 1
  store ptr %incdec.ptr, ptr %__first.addr, align 8
  br label %for.cond, !llvm.loop !19

for.end:                                          ; preds = %for.cond
  ret void
}

; Function Attrs: mustprogress nounwind uwtable
define linkonce_odr noundef nonnull align 8 dereferenceable(8) ptr @_ZNSt12_Vector_baseIaN8facebook5velox12StlAllocatorIaEEE19_M_get_Tp_allocatorEv(ptr noundef nonnull align 8 dereferenceable(32) %this) #1 comdat align 2 {
entry:
  %this.addr = alloca ptr, align 8
  store ptr %this, ptr %this.addr, align 8
  %this1 = load ptr, ptr %this.addr, align 8
  %_M_impl = getelementptr inbounds %"struct.std::_Vector_base", ptr %this1, i32 0, i32 0
  ret ptr %_M_impl
}

; Function Attrs: mustprogress nounwind uwtable
define linkonce_odr void @_ZNSt6vectorIaN8facebook5velox12StlAllocatorIaEEE15_M_erase_at_endEPa(ptr noundef nonnull align 8 dereferenceable(32) %this, ptr noundef %__pos) #1 comdat align 2 {
entry:
  %this.addr = alloca ptr, align 8
  %__pos.addr = alloca ptr, align 8
  %__n = alloca i64, align 8
  store ptr %this, ptr %this.addr, align 8
  store ptr %__pos, ptr %__pos.addr, align 8
  %this1 = load ptr, ptr %this.addr, align 8
  %_M_impl = getelementptr inbounds %"struct.std::_Vector_base", ptr %this1, i32 0, i32 0
  %add.ptr = getelementptr inbounds i8, ptr %_M_impl, i64 8
  %_M_finish = getelementptr inbounds %"struct.std::_Vector_base<signed char, facebook::velox::StlAllocator<signed char>>::_Vector_impl_data", ptr %add.ptr, i32 0, i32 1
  %0 = load ptr, ptr %_M_finish, align 8
  %1 = load ptr, ptr %__pos.addr, align 8
  %sub.ptr.lhs.cast = ptrtoint ptr %0 to i64
  %sub.ptr.rhs.cast = ptrtoint ptr %1 to i64
  %sub.ptr.sub = sub i64 %sub.ptr.lhs.cast, %sub.ptr.rhs.cast
  store i64 %sub.ptr.sub, ptr %__n, align 8
  %2 = load i64, ptr %__n, align 8
  %tobool = icmp ne i64 %2, 0
  br i1 %tobool, label %if.then, label %if.end

if.then:                                          ; preds = %entry
  %3 = load ptr, ptr %__pos.addr, align 8
  %_M_impl2 = getelementptr inbounds %"struct.std::_Vector_base", ptr %this1, i32 0, i32 0
  %add.ptr3 = getelementptr inbounds i8, ptr %_M_impl2, i64 8
  %_M_finish4 = getelementptr inbounds %"struct.std::_Vector_base<signed char, facebook::velox::StlAllocator<signed char>>::_Vector_impl_data", ptr %add.ptr3, i32 0, i32 1
  %4 = load ptr, ptr %_M_finish4, align 8
  %call = call noundef nonnull align 8 dereferenceable(8) ptr @_ZNSt12_Vector_baseIaN8facebook5velox12StlAllocatorIaEEE19_M_get_Tp_allocatorEv(ptr noundef nonnull align 8 dereferenceable(32) %this1) #9
  call void @_ZSt8_DestroyIPaN8facebook5velox12StlAllocatorIaEEEvT_S5_RT0_(ptr noundef %3, ptr noundef %4, ptr noundef nonnull align 8 dereferenceable(8) %call)
  %5 = load ptr, ptr %__pos.addr, align 8
  %_M_impl5 = getelementptr inbounds %"struct.std::_Vector_base", ptr %this1, i32 0, i32 0
  %add.ptr6 = getelementptr inbounds i8, ptr %_M_impl5, i64 8
  %_M_finish7 = getelementptr inbounds %"struct.std::_Vector_base<signed char, facebook::velox::StlAllocator<signed char>>::_Vector_impl_data", ptr %add.ptr6, i32 0, i32 1
  store ptr %5, ptr %_M_finish7, align 8
  br label %if.end

if.end:                                           ; preds = %if.then, %entry
  ret void
}

; Function Attrs: mustprogress nounwind uwtable
define linkonce_odr noundef i64 @_ZNKSt6vectorIaN8facebook5velox12StlAllocatorIaEEE4sizeEv(ptr noundef nonnull align 8 dereferenceable(32) %this) #1 comdat align 2 {
entry:
  %this.addr = alloca ptr, align 8
  store ptr %this, ptr %this.addr, align 8
  %this1 = load ptr, ptr %this.addr, align 8
  %_M_impl = getelementptr inbounds %"struct.std::_Vector_base", ptr %this1, i32 0, i32 0
  %add.ptr = getelementptr inbounds i8, ptr %_M_impl, i64 8
  %_M_finish = getelementptr inbounds %"struct.std::_Vector_base<signed char, facebook::velox::StlAllocator<signed char>>::_Vector_impl_data", ptr %add.ptr, i32 0, i32 1
  %0 = load ptr, ptr %_M_finish, align 8
  %_M_impl2 = getelementptr inbounds %"struct.std::_Vector_base", ptr %this1, i32 0, i32 0
  %add.ptr3 = getelementptr inbounds i8, ptr %_M_impl2, i64 8
  %_M_start = getelementptr inbounds %"struct.std::_Vector_base<signed char, facebook::velox::StlAllocator<signed char>>::_Vector_impl_data", ptr %add.ptr3, i32 0, i32 0
  %1 = load ptr, ptr %_M_start, align 8
  %sub.ptr.lhs.cast = ptrtoint ptr %0 to i64
  %sub.ptr.rhs.cast = ptrtoint ptr %1 to i64
  %sub.ptr.sub = sub i64 %sub.ptr.lhs.cast, %sub.ptr.rhs.cast
  ret i64 %sub.ptr.sub
}

; Function Attrs: mustprogress uwtable
define linkonce_odr void @_ZNSt6vectorIaN8facebook5velox12StlAllocatorIaEEE6resizeEm(ptr noundef nonnull align 8 dereferenceable(32) %this, i64 noundef %__new_size) #0 comdat align 2 {
entry:
  %this.addr = alloca ptr, align 8
  %__new_size.addr = alloca i64, align 8
  store ptr %this, ptr %this.addr, align 8
  store i64 %__new_size, ptr %__new_size.addr, align 8
  %this1 = load ptr, ptr %this.addr, align 8
  %0 = load i64, ptr %__new_size.addr, align 8
  %call = call noundef i64 @_ZNKSt6vectorIaN8facebook5velox12StlAllocatorIaEEE4sizeEv(ptr noundef nonnull align 8 dereferenceable(32) %this1) #9
  %cmp = icmp ugt i64 %0, %call
  br i1 %cmp, label %if.then, label %if.else

if.then:                                          ; preds = %entry
  %1 = load i64, ptr %__new_size.addr, align 8
  %call2 = call noundef i64 @_ZNKSt6vectorIaN8facebook5velox12StlAllocatorIaEEE4sizeEv(ptr noundef nonnull align 8 dereferenceable(32) %this1) #9
  %sub = sub i64 %1, %call2
  call void @_ZNSt6vectorIaN8facebook5velox12StlAllocatorIaEEE17_M_default_appendEm(ptr noundef nonnull align 8 dereferenceable(32) %this1, i64 noundef %sub)
  br label %if.end7

if.else:                                          ; preds = %entry
  %2 = load i64, ptr %__new_size.addr, align 8
  %call3 = call noundef i64 @_ZNKSt6vectorIaN8facebook5velox12StlAllocatorIaEEE4sizeEv(ptr noundef nonnull align 8 dereferenceable(32) %this1) #9
  %cmp4 = icmp ult i64 %2, %call3
  br i1 %cmp4, label %if.then5, label %if.end

if.then5:                                         ; preds = %if.else
  %_M_impl = getelementptr inbounds %"struct.std::_Vector_base", ptr %this1, i32 0, i32 0
  %add.ptr = getelementptr inbounds i8, ptr %_M_impl, i64 8
  %_M_start = getelementptr inbounds %"struct.std::_Vector_base<signed char, facebook::velox::StlAllocator<signed char>>::_Vector_impl_data", ptr %add.ptr, i32 0, i32 0
  %3 = load ptr, ptr %_M_start, align 8
  %4 = load i64, ptr %__new_size.addr, align 8
  %add.ptr6 = getelementptr inbounds i8, ptr %3, i64 %4
  call void @_ZNSt6vectorIaN8facebook5velox12StlAllocatorIaEEE15_M_erase_at_endEPa(ptr noundef nonnull align 8 dereferenceable(32) %this1, ptr noundef %add.ptr6) #9
  br label %if.end

if.end:                                           ; preds = %if.then5, %if.else
  br label %if.end7

if.end7:                                          ; preds = %if.end, %if.then
  ret void
}

; Function Attrs: mustprogress uwtable
define void @_ZN8facebook5velox6common3hll8DenseHll10initializeEa(ptr noundef nonnull align 8 dereferenceable(112) %this, i8 noundef signext %indexBitLength) #0 align 2 {
entry:
  %this.addr = alloca ptr, align 8
  %indexBitLength.addr = alloca i8, align 1
  %numBuckets = alloca i32, align 4
  store ptr %this, ptr %this.addr, align 8
  store i8 %indexBitLength, ptr %indexBitLength.addr, align 1
  %this1 = load ptr, ptr %this.addr, align 8
  %0 = load i8, ptr %indexBitLength.addr, align 1
  %conv = sext i8 %0 to i32
  %cmp = icmp sge i32 %conv, 4
  %lnot = xor i1 %cmp, true
  br i1 %lnot, label %if.then, label %if.end

if.then:                                          ; preds = %entry
  call void @llvm.trap()
  br label %if.end

if.end:                                           ; preds = %if.then, %entry
  %1 = load i8, ptr %indexBitLength.addr, align 1
  %conv3 = sext i8 %1 to i32
  %cmp4 = icmp sle i32 %conv3, 16
  %lnot5 = xor i1 %cmp4, true
  br i1 %lnot5, label %if.then7, label %if.end8

if.then7:                                         ; preds = %if.end
  call void @llvm.trap()
  br label %if.end8

if.end8:                                          ; preds = %if.then7, %if.end
  %2 = load i8, ptr %indexBitLength.addr, align 1
  %indexBitLength_ = getelementptr inbounds %"class.facebook::velox::common::hll::DenseHll", ptr %this1, i32 0, i32 0
  store i8 %2, ptr %indexBitLength_, align 8
  %3 = load i8, ptr %indexBitLength.addr, align 1
  %conv9 = sext i8 %3 to i32
  %shl = shl i32 1, %conv9
  store i32 %shl, ptr %numBuckets, align 4
  %4 = load i32, ptr %numBuckets, align 4
  %baselineCount_ = getelementptr inbounds %"class.facebook::velox::common::hll::DenseHll", ptr %this1, i32 0, i32 2
  store i32 %4, ptr %baselineCount_, align 4
  %deltas_ = getelementptr inbounds %"class.facebook::velox::common::hll::DenseHll", ptr %this1, i32 0, i32 3
  %5 = load i32, ptr %numBuckets, align 4
  %mul = mul nsw i32 %5, 4
  %div = sdiv i32 %mul, 8
  %conv10 = sext i32 %div to i64
  call void @_ZNSt6vectorIaN8facebook5velox12StlAllocatorIaEEE6resizeEm(ptr noundef nonnull align 8 dereferenceable(32) %deltas_, i64 noundef %conv10)
  ret void
}