; Function Attrs: mustprogress uwtable
define void @_ZN8facebook5velox6common3hll8DenseHll10initializeEa(ptr noundef nonnull align 8 dereferenceable(112) %this, i8 noundef signext %indexBitLength) local_unnamed_addr #0 align 2 personality ptr @__gxx_personality_v0 {
entry:
  %cmp = icmp slt i8 %indexBitLength, 4
  br i1 %cmp, label %if.then, label %if.end

if.then:                                          ; preds = %entry
  tail call void @llvm.trap()
  unreachable

if.end:                                           ; preds = %entry
  %cmp4 = icmp samesign ugt i8 %indexBitLength, 16
  br i1 %cmp4, label %if.then7, label %if.end8

if.then7:                                         ; preds = %if.end
  tail call void @llvm.trap()
  unreachable

if.end8:                                          ; preds = %if.end
  %conv = zext nneg i8 %indexBitLength to i32
  store i8 %indexBitLength, ptr %this, align 8
  %shl = shl nuw nsw i32 1, %conv
  %baselineCount_ = getelementptr inbounds nuw i8, ptr %this, i64 4
  store i32 %shl, ptr %baselineCount_, align 4
  %mul = shl nuw nsw i32 4, %conv
  %div56 = lshr exact i32 %mul, 3
  %conv10 = zext nneg i32 %div56 to i64
  %add.ptr.i.i = getelementptr inbounds nuw i8, ptr %this, i64 16
  %_M_finish.i.i = getelementptr inbounds nuw i8, ptr %this, i64 24
  %0 = load ptr, ptr %_M_finish.i.i, align 8
  %1 = load ptr, ptr %add.ptr.i.i, align 8
  %sub.ptr.lhs.cast.i.i = ptrtoint ptr %0 to i64
  %sub.ptr.rhs.cast.i.i = ptrtoint ptr %1 to i64
  %sub.ptr.sub.i.i = sub i64 %sub.ptr.lhs.cast.i.i, %sub.ptr.rhs.cast.i.i
  %cmp.i = icmp ult i64 %sub.ptr.sub.i.i, %conv10
  br i1 %cmp.i, label %if.then.i, label %if.else.i

if.then.i:                                        ; preds = %if.end8
  %deltas_ = getelementptr inbounds nuw i8, ptr %this, i64 8
  %sub.i = sub nuw nsw i64 %conv10, %sub.ptr.sub.i.i
  tail call void @_ZNSt6vectorIaN8facebook5velox12StlAllocatorIaEEE17_M_default_appendEm(ptr noundef nonnull align 8 dereferenceable(32) %deltas_, i64 noundef %sub.i)
  br label %_ZNSt6vectorIaN8facebook5velox12StlAllocatorIaEEE6resizeEm.exit

if.else.i:                                        ; preds = %if.end8
  %cmp4.i = icmp ugt i64 %sub.ptr.sub.i.i, %conv10
  br i1 %cmp4.i, label %if.then5.i, label %_ZNSt6vectorIaN8facebook5velox12StlAllocatorIaEEE6resizeEm.exit

if.then5.i:                                       ; preds = %if.else.i
  %add.ptr6.i = getelementptr inbounds nuw i8, ptr %1, i64 %conv10
  %tobool.not.i.i = icmp eq ptr %0, %add.ptr6.i
  br i1 %tobool.not.i.i, label %_ZNSt6vectorIaN8facebook5velox12StlAllocatorIaEEE6resizeEm.exit, label %if.then.i.i

if.then.i.i:                                      ; preds = %if.then5.i
  store ptr %add.ptr6.i, ptr %_M_finish.i.i, align 8
  br label %_ZNSt6vectorIaN8facebook5velox12StlAllocatorIaEEE6resizeEm.exit

_ZNSt6vectorIaN8facebook5velox12StlAllocatorIaEEE6resizeEm.exit: ; preds = %if.then.i, %if.else.i, %if.then5.i, %if.then.i.i
  ret void
}